Certificate:
    Data:
        Version: 1 (0x0)
        Serial Number: 1 (0x1)
    Signature Algorithm: md5WithRSAEncryption
        Issuer: C=AU, ST=Some-State, O=Internet Widgits Pty Ltd, CN=keybar.local
        Validity
            Not Before: Jul 27 00:47:56 2014 GMT
            Not After : Jul 24 00:47:56 2024 GMT
        Subject: C=AU, ST=Some-State, O=Internet Widgits Pty Ltd, CN=keybar.local
        Subject Public Key Info:
            Public Key Algorithm: rsaEncryption
                Public-Key: (4096 bit)
                Modulus:
                    00:d4:b9:bc:9a:aa:81:07:76:0d:39:da:43:b4:a0:
                    b2:2f:41:90:ef:fd:84:aa:3f:25:fa:cc:7b:44:76:
                    98:92:d5:47:8c:9f:ee:13:45:30:ba:0c:9e:09:38:
                    07:f3:ea:8a:80:8d:84:04:5e:39:c5:48:f0:cf:e7:
                    26:9f:d1:ff:9a:ac:e0:9a:71:5d:ef:e1:d0:71:70:
                    18:45:44:f6:83:6a:8a:d5:ba:53:46:f6:84:01:eb:
                    1a:3b:ed:e2:e4:58:94:2c:15:ba:db:33:35:0a:7a:
                    d0:8b:6f:21:8d:f6:b1:5f:aa:be:e9:b2:0f:d5:84:
                    47:d9:6d:3a:ec:cc:20:35:79:42:ed:db:36:78:5d:
                    cb:32:df:4a:1e:5b:8d:d0:21:ce:ad:6d:83:37:ac:
                    d5:9a:1c:94:10:4f:45:fc:15:3d:09:46:4e:f8:e7:
                    72:bd:8b:3c:3a:2c:b2:64:7c:04:f7:bf:06:97:2a:
                    de:cd:41:b3:5d:75:64:69:ba:e2:0a:12:d8:b5:03:
                    e2:b5:8c:1e:d0:90:da:39:43:ff:8d:94:23:6a:41:
                    d0:bc:60:19:2f:71:b1:fa:bf:93:ed:a4:ea:50:7c:
                    72:1c:c8:7c:b3:fa:e0:fa:04:cf:a4:56:d5:d2:f8:
                    60:24:3c:60:12:61:cb:e4:2d:8b:2b:9a:e7:72:ca:
                    4c:a4:56:e8:2a:5d:ae:40:2a:03:52:40:10:d2:fa:
                    83:d2:ea:b4:c5:ed:98:84:c7:f6:1a:8b:17:e2:b5:
                    8e:b2:8c:05:5a:12:e4:a6:1b:ed:c3:aa:16:91:ae:
                    84:c4:d1:b6:c4:0a:a3:ce:9f:93:de:09:d7:bd:b7:
                    23:84:9f:df:d1:b9:91:e6:36:b9:5e:e3:4c:d9:a1:
                    06:a6:60:6f:f6:e2:9a:6b:a4:f3:9b:9f:9a:14:fe:
                    a2:91:04:ad:eb:1f:20:16:8b:b7:14:5b:d7:a1:8d:
                    fd:09:f4:c7:3b:ab:48:0e:00:9c:a4:b4:52:59:f8:
                    eb:63:85:ed:cf:de:c2:35:55:21:39:b3:4f:ec:02:
                    e3:48:6c:64:23:ad:4a:cc:99:8d:de:04:ed:38:0b:
                    7a:e3:fd:ed:b0:78:b7:9b:e0:20:f1:ea:7d:db:56:
                    97:73:1a:89:bb:f6:4a:8c:92:6a:1b:b9:85:36:5f:
                    a8:ff:8d:e6:0e:b9:01:ee:2b:2c:ad:d5:96:f1:69:
                    fc:d3:8d:04:d6:84:75:63:26:26:9c:4b:e2:ab:77:
                    a1:15:dd:f3:1f:cb:30:e5:72:16:8c:9c:b3:33:3f:
                    3b:62:41:3e:29:de:23:2b:83:fb:b9:e6:cc:30:46:
                    56:3d:3a:7b:c9:53:02:80:2c:e1:79:a5:b9:93:7c:
                    ac:67:9d
                Exponent: 65537 (0x10001)
    Signature Algorithm: md5WithRSAEncryption
         59:1b:18:10:c2:69:c0:fa:a2:69:ea:99:aa:f7:5c:fc:9d:fb:
         02:b9:f3:a6:6b:17:d7:5e:32:40:87:cf:a9:47:12:49:66:09:
         4a:ff:41:25:58:ab:9f:22:0a:c7:77:d7:50:32:0c:9e:72:51:
         32:34:d2:b4:f0:c2:7a:60:a8:d5:a4:d5:90:dc:33:48:7d:1d:
         39:7c:28:1c:c7:62:b6:92:be:c2:07:db:b9:ce:d0:95:03:5f:
         2b:fc:1f:c3:6f:dd:f6:67:90:c5:75:84:3f:27:57:c6:a0:bf:
         06:e8:44:5f:7a:da:a3:06:74:8d:84:73:35:69:d3:c5:a2:79:
         01:38
-----BEGIN CERTIFICATE-----
MIIDqzCCAxQCAQEwDQYJKoZIhvcNAQEEBQAwXDELMAkGA1UEBhMCQVUxEzARBgNV
BAgMClNvbWUtU3RhdGUxITAfBgNVBAoMGEludGVybmV0IFdpZGdpdHMgUHR5IEx0
ZDEVMBMGA1UEAwwMa2V5YmFyLmxvY2FsMB4XDTE0MDcyNzAwNDc1NloXDTI0MDcy
NDAwNDc1NlowXDELMAkGA1UEBhMCQVUxEzARBgNVBAgMClNvbWUtU3RhdGUxITAf
BgNVBAoMGEludGVybmV0IFdpZGdpdHMgUHR5IEx0ZDEVMBMGA1UEAwwMa2V5YmFy
LmxvY2FsMIICIjANBgkqhkiG9w0BAQEFAAOCAg8AMIICCgKCAgEA1Lm8mqqBB3YN
OdpDtKCyL0GQ7/2Eqj8l+sx7RHaYktVHjJ/uE0UwugyeCTgH8+qKgI2EBF45xUjw
z+cmn9H/mqzgmnFd7+HQcXAYRUT2g2qK1bpTRvaEAesaO+3i5FiULBW62zM1CnrQ
i28hjfaxX6q+6bIP1YRH2W067MwgNXlC7ds2eF3LMt9KHluN0CHOrW2DN6zVmhyU
EE9F/BU9CUZO+OdyvYs8OiyyZHwE978GlyrezUGzXXVkabriChLYtQPitYwe0JDa
OUP/jZQjakHQvGAZL3Gx+r+T7aTqUHxyHMh8s/rg+gTPpFbV0vhgJDxgEmHL5C2L
K5rncspMpFboKl2uQCoDUkAQ0vqD0uq0xe2YhMf2GosX4rWOsowFWhLkphvtw6oW
ka6ExNG2xAqjzp+T3gnXvbcjhJ/f0bmR5ja5XuNM2aEGpmBv9uKaa6Tzm5+aFP6i
kQSt6x8gFou3FFvXoY39CfTHO6tIDgCcpLRSWfjrY4Xtz97CNVUhObNP7ALjSGxk
I61KzJmN3gTtOAt64/3tsHi3m+Ag8ep921aXcxqJu/ZKjJJqG7mFNl+o/43mDrkB
7issrdWW8Wn8040E1oR1YyYmnEviq3ehFd3zH8sw5XIWjJyzMz87YkE+Kd4jK4P7
uebMMEZWPTp7yVMCgCzheaW5k3ysZ50CAwEAATANBgkqhkiG9w0BAQQFAAOBgQBZ
GxgQwmnA+qJp6pmq91z8nfsCufOmaxfXXjJAh8+pRxJJZglK/0ElWKufIgrHd9dQ
MgyeclEyNNK08MJ6YKjVpNWQ3DNIfR05fCgcx2K2kr7CB9u5ztCVA18r/B/Db932
Z5DFdYQ/J1fGoL8G6ERfetqjBnSNhHM1adPFonkBOA==
-----END CERTIFICATE-----
